target datalayout = "e-m:e-p270:32:32-p271:32:32-p272:64:64-i64:64-i128:128-f80:128-n8:16:32:64-S128"
target triple = "x86_64-pc-linux-gnu"

%struct._zval_struct = type { %union._zend_value, %union.anon, %union.anon.2 }
%union._zend_value = type { i64 }
%union.anon = type { i32 }
%union.anon.2 = type { i32 }
%struct._Bucket = type { %struct._zval_struct, i64, ptr }
%struct._zend_module_entry = type { i16, i32, i8, i8, ptr, ptr, ptr, ptr, ptr, ptr, ptr, ptr, ptr, ptr, i64, ptr, ptr, ptr, ptr, i32, i8, ptr, i32, ptr }
%struct._zend_module_dep = type { ptr, ptr, ptr, i8 }

; Function Attrs: nounwind uwtable
define internal void @zend_sort_modules(ptr noundef %0, i64 noundef %1, i64 noundef %2, ptr noundef %3, ptr noundef %4) #0 {
  %6 = alloca ptr, align 8
  %7 = alloca i64, align 8
  %8 = alloca i64, align 8
  %9 = alloca ptr, align 8
  %10 = alloca ptr, align 8
  %11 = alloca ptr, align 8
  %12 = alloca ptr, align 8
  %13 = alloca ptr, align 8
  %14 = alloca %struct._Bucket, align 8
  %15 = alloca ptr, align 8
  %16 = alloca ptr, align 8
  %17 = alloca ptr, align 8
  %18 = alloca i32, align 4
  store ptr %0, ptr %6, align 8, !tbaa !102
  store i64 %1, ptr %7, align 8, !tbaa !85
  store i64 %2, ptr %8, align 8, !tbaa !85
  store ptr %3, ptr %9, align 8, !tbaa !102
  store ptr %4, ptr %10, align 8, !tbaa !102
  call void @llvm.lifetime.start.p0(i64 8, ptr %11) #21
  %19 = load ptr, ptr %6, align 8, !tbaa !102
  store ptr %19, ptr %11, align 8, !tbaa !104
  call void @llvm.lifetime.start.p0(i64 8, ptr %12) #21
  call void @llvm.lifetime.start.p0(i64 8, ptr %13) #21
  %20 = load ptr, ptr %11, align 8, !tbaa !104
  %21 = load i64, ptr %7, align 8, !tbaa !85
  %22 = getelementptr inbounds nuw %struct._Bucket, ptr %20, i64 %21
  store ptr %22, ptr %13, align 8, !tbaa !104
  call void @llvm.lifetime.start.p0(i64 32, ptr %14) #21
  call void @llvm.lifetime.start.p0(i64 8, ptr %15) #21
  call void @llvm.lifetime.start.p0(i64 8, ptr %16) #21
  br label %23

23:                                               ; preds = %99, %5
  %24 = load ptr, ptr %11, align 8, !tbaa !104
  %25 = load ptr, ptr %13, align 8, !tbaa !104
  %26 = icmp ult ptr %24, %25
  br i1 %26, label %27, label %102

27:                                               ; preds = %23
  br label %28

28:                                               ; preds = %96, %27
  %29 = load ptr, ptr %11, align 8, !tbaa !104
  %30 = getelementptr inbounds nuw %struct._Bucket, ptr %29, i32 0, i32 0
  %31 = getelementptr inbounds nuw %struct._zval_struct, ptr %30, i32 0, i32 0
  %32 = load ptr, ptr %31, align 8, !tbaa !44
  store ptr %32, ptr %15, align 8, !tbaa !173
  %33 = load ptr, ptr %15, align 8, !tbaa !173
  %34 = getelementptr inbounds nuw %struct._zend_module_entry, ptr %33, i32 0, i32 19
  %35 = load i32, ptr %34, align 8, !tbaa !174
  %36 = icmp ne i32 %35, 0
  br i1 %36, label %99, label %37

37:                                               ; preds = %28
  %38 = load ptr, ptr %15, align 8, !tbaa !173
  %39 = getelementptr inbounds nuw %struct._zend_module_entry, ptr %38, i32 0, i32 5
  %40 = load ptr, ptr %39, align 8, !tbaa !179
  %41 = icmp ne ptr %40, null
  br i1 %41, label %42, label %99

42:                                               ; preds = %37
  call void @llvm.lifetime.start.p0(i64 8, ptr %17) #21
  %43 = load ptr, ptr %15, align 8, !tbaa !173
  %44 = getelementptr inbounds nuw %struct._zend_module_entry, ptr %43, i32 0, i32 5
  %45 = load ptr, ptr %44, align 8, !tbaa !179
  store ptr %45, ptr %17, align 8, !tbaa !180
  br label %46

46:                                               ; preds = %92, %42
  %47 = load ptr, ptr %17, align 8, !tbaa !180
  %48 = getelementptr inbounds nuw %struct._zend_module_dep, ptr %47, i32 0, i32 0
  %49 = load ptr, ptr %48, align 8, !tbaa !181
  %50 = icmp ne ptr %49, null
  br i1 %50, label %51, label %95

51:                                               ; preds = %46
  %52 = load ptr, ptr %17, align 8, !tbaa !180
  %53 = getelementptr inbounds nuw %struct._zend_module_dep, ptr %52, i32 0, i32 3
  %54 = load i8, ptr %53, align 8, !tbaa !183
  %55 = zext i8 %54 to i32
  %56 = icmp eq i32 %55, 1
  br i1 %56, label %63, label %57

57:                                               ; preds = %51
  %58 = load ptr, ptr %17, align 8, !tbaa !180
  %59 = getelementptr inbounds nuw %struct._zend_module_dep, ptr %58, i32 0, i32 3
  %60 = load i8, ptr %59, align 8, !tbaa !183
  %61 = zext i8 %60 to i32
  %62 = icmp eq i32 %61, 3
  br i1 %62, label %63, label %92

63:                                               ; preds = %57, %51
  %64 = load ptr, ptr %11, align 8, !tbaa !104
  %65 = getelementptr inbounds %struct._Bucket, ptr %64, i64 1
  store ptr %65, ptr %12, align 8, !tbaa !104
  br label %66

66:                                               ; preds = %88, %63
  %67 = load ptr, ptr %12, align 8, !tbaa !104
  %68 = load ptr, ptr %13, align 8, !tbaa !104
  %69 = icmp ult ptr %67, %68
  br i1 %69, label %70, label %91

70:                                               ; preds = %66
  %71 = load ptr, ptr %12, align 8, !tbaa !104
  %72 = getelementptr inbounds nuw %struct._Bucket, ptr %71, i32 0, i32 0
  %73 = getelementptr inbounds nuw %struct._zval_struct, ptr %72, i32 0, i32 0
  %74 = load ptr, ptr %73, align 8, !tbaa !44
  store ptr %74, ptr %16, align 8, !tbaa !173
  %75 = load ptr, ptr %17, align 8, !tbaa !180
  %76 = getelementptr inbounds nuw %struct._zend_module_dep, ptr %75, i32 0, i32 0
  %77 = load ptr, ptr %76, align 8, !tbaa !181
  %78 = load ptr, ptr %16, align 8, !tbaa !173
  %79 = getelementptr inbounds nuw %struct._zend_module_entry, ptr %78, i32 0, i32 6
  %80 = load ptr, ptr %79, align 8, !tbaa !184
  %81 = call i32 @strcasecmp(ptr noundef %77, ptr noundef %80) #22
  %82 = icmp eq i32 %81, 0
  br i1 %82, label %83, label %88

83:                                               ; preds = %70
  %84 = load ptr, ptr %11, align 8, !tbaa !104
  call void @llvm.memcpy.p0.p0.i64(ptr align 8 %14, ptr align 8 %84, i64 32, i1 false), !tbaa.struct !200
  %85 = load ptr, ptr %11, align 8, !tbaa !104
  %86 = load ptr, ptr %12, align 8, !tbaa !104
  call void @llvm.memcpy.p0.p0.i64(ptr align 8 %85, ptr align 8 %86, i64 32, i1 false), !tbaa.struct !200
  %87 = load ptr, ptr %12, align 8, !tbaa !104
  call void @llvm.memcpy.p0.p0.i64(ptr align 8 %87, ptr align 8 %14, i64 32, i1 false), !tbaa.struct !200
  store i32 4, ptr %18, align 4
  br label %96

88:                                               ; preds = %70
  %89 = load ptr, ptr %12, align 8, !tbaa !104
  %90 = getelementptr inbounds nuw %struct._Bucket, ptr %89, i32 1
  store ptr %90, ptr %12, align 8, !tbaa !104
  br label %66

91:                                               ; preds = %66
  br label %92

92:                                               ; preds = %91, %57
  %93 = load ptr, ptr %17, align 8, !tbaa !180
  %94 = getelementptr inbounds nuw %struct._zend_module_dep, ptr %93, i32 1
  store ptr %94, ptr %17, align 8, !tbaa !180
  br label %46

95:                                               ; preds = %46
  store i32 0, ptr %18, align 4
  br label %96

96:                                               ; preds = %95, %83
  call void @llvm.lifetime.end.p0(i64 8, ptr %17) #21
  %97 = load i32, ptr %18, align 4
  switch i32 %97, label %103 [
    i32 0, label %98
    i32 4, label %28
  ]

98:                                               ; preds = %96
  br label %99

99:                                               ; preds = %98, %37, %28
  %100 = load ptr, ptr %11, align 8, !tbaa !104
  %101 = getelementptr inbounds nuw %struct._Bucket, ptr %100, i32 1
  store ptr %101, ptr %11, align 8, !tbaa !104
  br label %23

102:                                              ; preds = %23
  call void @llvm.lifetime.end.p0(i64 8, ptr %16) #21
  call void @llvm.lifetime.end.p0(i64 8, ptr %15) #21
  call void @llvm.lifetime.end.p0(i64 32, ptr %14) #21
  call void @llvm.lifetime.end.p0(i64 8, ptr %13) #21
  call void @llvm.lifetime.end.p0(i64 8, ptr %12) #21
  call void @llvm.lifetime.end.p0(i64 8, ptr %11) #21
  ret void

103:                                              ; preds = %96
  unreachable
}