; Function Attrs: nofree nounwind memory(read, argmem: readwrite) uwtable
define internal void @zend_sort_modules(ptr noundef captures(address) %0, i64 noundef %1, i64 %2, ptr readnone captures(none) %3, ptr readnone captures(none) %4) #13 {
  %6 = alloca %struct._Bucket, align 8
  %7 = getelementptr inbounds nuw %struct._Bucket, ptr %0, i64 %1
  call void @llvm.lifetime.start.p0(i64 32, ptr nonnull %6)
  %.not43 = icmp eq i64 %1, 0
  br i1 %.not43, label %._crit_edge, label %.preheader34

.preheader34:                                     ; preds = %5, %.thread
  %.02642 = phi ptr [ %32, %.thread ], [ %0, %5 ]
  %8 = load ptr, ptr %.02642, align 8, !tbaa !42
  %9 = getelementptr inbounds nuw i8, ptr %8, i64 136
  %10 = load i32, ptr %9, align 8, !tbaa !180
  %.not39 = icmp eq i32 %10, 0
  br i1 %.not39, label %.lr.ph40, label %.thread

.lr.ph40:                                         ; preds = %.preheader34, %28
  %11 = phi ptr [ %29, %28 ], [ %8, %.preheader34 ]
  %12 = getelementptr inbounds nuw i8, ptr %11, i64 24
  %13 = load ptr, ptr %12, align 8, !tbaa !185
  %.not30 = icmp eq ptr %13, null
  br i1 %.not30, label %.thread, label %.preheader

.preheader:                                       ; preds = %.lr.ph40
  %14 = load ptr, ptr %13, align 8, !tbaa !186
  %.not3137 = icmp eq ptr %14, null
  br i1 %.not3137, label %.thread, label %.lr.ph

.lr.ph:                                           ; preds = %.preheader, %.loopexit
  %15 = phi ptr [ %27, %.loopexit ], [ %14, %.preheader ]
  %.02538 = phi ptr [ %26, %.loopexit ], [ %13, %.preheader ]
  %16 = getelementptr inbounds nuw i8, ptr %.02538, i64 24
  %17 = load i8, ptr %16, align 8, !tbaa !188
  switch i8 %17, label %.loopexit [
    i8 1, label %.preheader50
    i8 3, label %.preheader50
  ]

.preheader50:                                     ; preds = %.lr.ph, %.lr.ph
  br label %18

18:                                               ; preds = %.preheader50, %20
  %.026.pn = phi ptr [ %.027, %20 ], [ %.02642, %.preheader50 ]
  %.027 = getelementptr inbounds nuw i8, ptr %.026.pn, i64 32
  %19 = icmp ult ptr %.027, %7
  br i1 %19, label %20, label %.loopexit

20:                                               ; preds = %18
  %21 = load ptr, ptr %.027, align 8, !tbaa !42
  %22 = getelementptr inbounds nuw i8, ptr %21, i64 32
  %23 = load ptr, ptr %22, align 8, !tbaa !189
  %24 = tail call i32 @strcasecmp(ptr noundef nonnull %15, ptr noundef %23) #35
  %25 = icmp eq i32 %24, 0
  br i1 %25, label %28, label %18

.loopexit:                                        ; preds = %18, %.lr.ph
  %26 = getelementptr inbounds nuw i8, ptr %.02538, i64 32
  %27 = load ptr, ptr %26, align 8, !tbaa !186
  %.not31 = icmp eq ptr %27, null
  br i1 %.not31, label %.thread, label %.lr.ph

28:                                               ; preds = %20
  call void @llvm.memcpy.p0.p0.i64(ptr noundef nonnull align 8 dereferenceable(32) %6, ptr noundef nonnull align 8 dereferenceable(32) %.02642, i64 32, i1 false), !tbaa.struct !205
  tail call void @llvm.memcpy.p0.p0.i64(ptr noundef nonnull align 8 dereferenceable(32) %.02642, ptr noundef nonnull align 8 dereferenceable(32) %.027, i64 32, i1 false), !tbaa.struct !205
  call void @llvm.memcpy.p0.p0.i64(ptr noundef nonnull align 8 dereferenceable(32) %.027, ptr noundef nonnull align 8 dereferenceable(32) %6, i64 32, i1 false), !tbaa.struct !205
  %29 = load ptr, ptr %.02642, align 8, !tbaa !42
  %30 = getelementptr inbounds nuw i8, ptr %29, i64 136
  %31 = load i32, ptr %30, align 8, !tbaa !180
  %.not = icmp eq i32 %31, 0
  br i1 %.not, label %.lr.ph40, label %.thread

.thread:                                          ; preds = %28, %.lr.ph40, %.preheader, %.loopexit, %.preheader34
  %32 = getelementptr inbounds nuw i8, ptr %.02642, i64 32
  %33 = icmp ult ptr %32, %7
  br i1 %33, label %.preheader34, label %._crit_edge

._crit_edge:                                      ; preds = %.thread, %5
  call void @llvm.lifetime.end.p0(i64 32, ptr nonnull %6)
  ret void
}